; Function Attrs: nounwind uwtable
define ptr @l___private_Lean_Elab_BuiltinNotation_0__Lean_Elab_Term_elabParserMacroAux___boxed(ptr noundef %0, ptr noundef %1, ptr noundef %2, ptr noundef %3, ptr noundef %4, ptr noundef %5, ptr noundef %6, ptr noundef %7, ptr noundef %8, ptr noundef %9) local_unnamed_addr #0 {
  %11 = ptrtoint ptr %2 to i64
  %12 = lshr i64 %11, 1
  %13 = trunc i64 %12 to i8
  %14 = and i64 %11, 1
  %.not = icmp eq i64 %14, 0
  br i1 %.not, label %15, label %lean_dec.exit19

15:                                               ; preds = %10
  %16 = load i32, ptr %2, align 4, !tbaa !4
  %17 = icmp sgt i32 %16, 1
  br i1 %17, label %18, label %20, !prof !9

18:                                               ; preds = %15
  %19 = add nsw i32 %16, -1
  store i32 %19, ptr %2, align 4, !tbaa !4
  br label %lean_dec.exit19

20:                                               ; preds = %15
  %.not.i = icmp eq i32 %16, 0
  br i1 %.not.i, label %lean_dec.exit19, label %21

21:                                               ; preds = %20
  tail call void @lean_dec_ref_cold(ptr noundef nonnull %2) #6
  br label %lean_dec.exit19

lean_dec.exit19:                                  ; preds = %21, %20, %18, %10
  %22 = tail call ptr @l___private_Lean_Elab_BuiltinNotation_0__Lean_Elab_Term_elabParserMacroAux(ptr noundef %0, ptr noundef %1, i8 noundef zeroext %13, ptr noundef %3, ptr noundef %4, ptr noundef %5, ptr noundef %6, ptr noundef %7, ptr noundef %8, ptr noundef %9)
  %23 = ptrtoint ptr %8 to i64
  %24 = and i64 %23, 1
  %.not28 = icmp eq i64 %24, 0
  br i1 %.not28, label %25, label %lean_dec.exit18

25:                                               ; preds = %lean_dec.exit19
  %26 = load i32, ptr %8, align 4, !tbaa !4
  %27 = icmp sgt i32 %26, 1
  br i1 %27, label %28, label %30, !prof !9

28:                                               ; preds = %25
  %29 = add nsw i32 %26, -1
  store i32 %29, ptr %8, align 4, !tbaa !4
  br label %lean_dec.exit18

30:                                               ; preds = %25
  %.not.i20 = icmp eq i32 %26, 0
  br i1 %.not.i20, label %lean_dec.exit18, label %31

31:                                               ; preds = %30
  tail call void @lean_dec_ref_cold(ptr noundef nonnull %8) #6
  br label %lean_dec.exit18

lean_dec.exit18:                                  ; preds = %31, %30, %28, %lean_dec.exit19
  %32 = ptrtoint ptr %6 to i64
  %33 = and i64 %32, 1
  %.not29 = icmp eq i64 %33, 0
  br i1 %.not29, label %34, label %lean_dec.exit17

34:                                               ; preds = %lean_dec.exit18
  %35 = load i32, ptr %6, align 4, !tbaa !4
  %36 = icmp sgt i32 %35, 1
  br i1 %36, label %37, label %39, !prof !9

37:                                               ; preds = %34
  %38 = add nsw i32 %35, -1
  store i32 %38, ptr %6, align 4, !tbaa !4
  br label %lean_dec.exit17

39:                                               ; preds = %34
  %.not.i22 = icmp eq i32 %35, 0
  br i1 %.not.i22, label %lean_dec.exit17, label %40

40:                                               ; preds = %39
  tail call void @lean_dec_ref_cold(ptr noundef nonnull %6) #6
  br label %lean_dec.exit17

lean_dec.exit17:                                  ; preds = %40, %39, %37, %lean_dec.exit18
  %41 = ptrtoint ptr %5 to i64
  %42 = and i64 %41, 1
  %.not30 = icmp eq i64 %42, 0
  br i1 %.not30, label %43, label %lean_dec.exit16

43:                                               ; preds = %lean_dec.exit17
  %44 = load i32, ptr %5, align 4, !tbaa !4
  %45 = icmp sgt i32 %44, 1
  br i1 %45, label %46, label %48, !prof !9

46:                                               ; preds = %43
  %47 = add nsw i32 %44, -1
  store i32 %47, ptr %5, align 4, !tbaa !4
  br label %lean_dec.exit16

48:                                               ; preds = %43
  %.not.i24 = icmp eq i32 %44, 0
  br i1 %.not.i24, label %lean_dec.exit16, label %49

49:                                               ; preds = %48
  tail call void @lean_dec_ref_cold(ptr noundef nonnull %5) #6
  br label %lean_dec.exit16

lean_dec.exit16:                                  ; preds = %49, %48, %46, %lean_dec.exit17
  %50 = ptrtoint ptr %4 to i64
  %51 = and i64 %50, 1
  %.not31 = icmp eq i64 %51, 0
  br i1 %.not31, label %52, label %lean_dec.exit

52:                                               ; preds = %lean_dec.exit16
  %53 = load i32, ptr %4, align 4, !tbaa !4
  %54 = icmp sgt i32 %53, 1
  br i1 %54, label %55, label %57, !prof !9

55:                                               ; preds = %52
  %56 = add nsw i32 %53, -1
  store i32 %56, ptr %4, align 4, !tbaa !4
  br label %lean_dec.exit

57:                                               ; preds = %52
  %.not.i26 = icmp eq i32 %53, 0
  br i1 %.not.i26, label %lean_dec.exit, label %58

58:                                               ; preds = %57
  tail call void @lean_dec_ref_cold(ptr noundef nonnull %4) #6
  br label %lean_dec.exit

lean_dec.exit:                                    ; preds = %58, %57, %55, %lean_dec.exit16
  ret ptr %22
}